; Function Attrs: nofree norecurse nosync nounwind memory(readwrite, inaccessiblemem: none) uwtable
define dso_local void @strbuf_tolower(ptr noundef readonly captures(none) %0) local_unnamed_addr #9 {
  %2 = getelementptr inbounds nuw i8, ptr %0, i64 16
  %3 = load ptr, ptr %2, align 8, !tbaa !12
  %4 = getelementptr inbounds nuw i8, ptr %0, i64 8
  %5 = load i64, ptr %4, align 8, !tbaa !16
  %6 = getelementptr inbounds nuw i8, ptr %3, i64 %5
  %.not = icmp eq i64 %5, 0
  br i1 %.not, label %._crit_edge, label %.lr.ph

.lr.ph:                                           ; preds = %1, %.lr.ph
  %.09 = phi ptr [ %13, %.lr.ph ], [ %3, %1 ]
  %7 = load i8, ptr %.09, align 1, !tbaa !4
  %8 = zext i8 %7 to i64
  %9 = getelementptr inbounds nuw [256 x i8], ptr @sane_ctype, i64 0, i64 %8
  %10 = load i8, ptr %9, align 1, !tbaa !4
  %11 = shl i8 %10, 3
  %12 = and i8 %11, 32
  %.0.i8 = or i8 %12, %7
  store i8 %.0.i8, ptr %.09, align 1, !tbaa !4
  %13 = getelementptr inbounds nuw i8, ptr %.09, i64 1
  %14 = icmp ult ptr %13, %6
  br i1 %14, label %.lr.ph, label %._crit_edge, !llvm.loop !21

._crit_edge:                                      ; preds = %.lr.ph, %1
  ret void
}